; Function Attrs: nounwind uwtable
define noalias noundef ptr @Bmc_ManBCoreReadPivots(ptr noundef readonly captures(none) %0) local_unnamed_addr #0 {
  %2 = alloca i32, align 4
  %3 = tail call noalias dereferenceable_or_null(16) ptr @malloc(i64 noundef 16) #15
  %4 = getelementptr inbounds nuw i8, ptr %3, i64 4
  store i32 0, ptr %4, align 4
  store i32 100, ptr %3, align 8
  %5 = tail call noalias dereferenceable_or_null(400) ptr @malloc(i64 noundef 400) #15
  %6 = getelementptr inbounds nuw i8, ptr %3, i64 8
  store ptr %5, ptr %6, align 8
  %7 = tail call noalias ptr @fopen(ptr noundef %0, ptr noundef nonnull @.str)
  %8 = call i32 (ptr, ptr, ...) @__isoc99_fscanf(ptr noundef %7, ptr noundef nonnull @.str.1, ptr noundef nonnull %2) #16
  %9 = icmp eq i32 %8, 1
  br i1 %9, label %.lr.ph, label %._crit_edge

.lr.ph:                                           ; preds = %1, %Vec_IntPush.exit
  %10 = load i32, ptr %2, align 4
  %11 = load i32, ptr %4, align 4
  %12 = load i32, ptr %3, align 8
  %13 = icmp eq i32 %11, %12
  br i1 %13, label %14, label %.Vec_IntGrow.exit10_crit_edge.i

.Vec_IntGrow.exit10_crit_edge.i:                  ; preds = %.lr.ph
  %.pre.i = load ptr, ptr %6, align 8
  br label %Vec_IntPush.exit

14:                                               ; preds = %.lr.ph
  %15 = icmp slt i32 %11, 16
  br i1 %15, label %16, label %23

16:                                               ; preds = %14
  %17 = load ptr, ptr %6, align 8
  %.not9.i.i = icmp eq ptr %17, null
  br i1 %.not9.i.i, label %20, label %18

18:                                               ; preds = %16
  %19 = call dereferenceable_or_null(64) ptr @realloc(ptr noundef nonnull %17, i64 noundef 64) #17
  br label %Vec_IntGrow.exit.i

20:                                               ; preds = %16
  %21 = call noalias dereferenceable_or_null(64) ptr @malloc(i64 noundef 64) #15
  br label %Vec_IntGrow.exit.i

Vec_IntGrow.exit.i:                               ; preds = %20, %18
  %22 = phi ptr [ %19, %18 ], [ %21, %20 ]
  store ptr %22, ptr %6, align 8
  store i32 16, ptr %3, align 8
  br label %Vec_IntPush.exit

23:                                               ; preds = %14
  %24 = shl nuw nsw i32 %11, 1
  %25 = load ptr, ptr %6, align 8
  %.not9.i9.i = icmp eq ptr %25, null
  %26 = zext nneg i32 %24 to i64
  %27 = shl nuw nsw i64 %26, 2
  br i1 %.not9.i9.i, label %30, label %28

28:                                               ; preds = %23
  %29 = call ptr @realloc(ptr noundef nonnull %25, i64 noundef %27) #17
  br label %32

30:                                               ; preds = %23
  %31 = call noalias ptr @malloc(i64 noundef %27) #15
  br label %32

32:                                               ; preds = %30, %28
  %33 = phi ptr [ %29, %28 ], [ %31, %30 ]
  store ptr %33, ptr %6, align 8
  store i32 %24, ptr %3, align 8
  br label %Vec_IntPush.exit

Vec_IntPush.exit:                                 ; preds = %.Vec_IntGrow.exit10_crit_edge.i, %Vec_IntGrow.exit.i, %32
  %34 = phi ptr [ %.pre.i, %.Vec_IntGrow.exit10_crit_edge.i ], [ %33, %32 ], [ %22, %Vec_IntGrow.exit.i ]
  %35 = add nsw i32 %11, 1
  store i32 %35, ptr %4, align 4
  %36 = sext i32 %11 to i64
  %37 = getelementptr inbounds i32, ptr %34, i64 %36
  store i32 %10, ptr %37, align 4
  %38 = call i32 (ptr, ptr, ...) @__isoc99_fscanf(ptr noundef %7, ptr noundef nonnull @.str.1, ptr noundef nonnull %2) #16
  %39 = icmp eq i32 %38, 1
  br i1 %39, label %.lr.ph, label %._crit_edge, !llvm.loop !4

._crit_edge:                                      ; preds = %Vec_IntPush.exit, %1
  %40 = call i32 @fclose(ptr noundef %7)
  ret ptr %3
}